target datalayout = "e-m:e-p270:32:32-p271:32:32-p272:64:64-i64:64-i128:128-f80:128-n8:16:32:64-S128"
target triple = "x86_64-unknown-linux-gnu"

%struct.GeoHashBits = type { i64, i8 }
%struct.redisObject = type { i32, i32, ptr }

; Function Attrs: nounwind uwtable
define dso_local i32 @decodeGeohash(double noundef %bits, ptr noundef %xy) #0 {
entry:
  %bits.addr = alloca double, align 8
  %xy.addr = alloca ptr, align 8
  %hash = alloca %struct.GeoHashBits, align 8
  store double %bits, ptr %bits.addr, align 8
  store ptr %xy, ptr %xy.addr, align 8
  %bits1 = getelementptr inbounds %struct.GeoHashBits, ptr %hash, i32 0, i32 0
  %0 = load double, ptr %bits.addr, align 8
  %conv = fptoui double %0 to i64
  store i64 %conv, ptr %bits1, align 8
  %step = getelementptr inbounds %struct.GeoHashBits, ptr %hash, i32 0, i32 1
  store i8 26, ptr %step, align 8
  %1 = load ptr, ptr %xy.addr, align 8
  %2 = getelementptr inbounds { i64, i8 }, ptr %hash, i32 0, i32 0
  %3 = load i64, ptr %2, align 8
  %4 = getelementptr inbounds { i64, i8 }, ptr %hash, i32 0, i32 1
  %5 = load i8, ptr %4, align 8
  %call = call i32 @geohashDecodeToLongLatWGS84(i64 %3, i8 %5, ptr noundef %1)
  ret i32 %call
}

; Function Attrs: nounwind uwtable
define dso_local i32 @longLatFromMember(ptr noundef %zobj, ptr noundef %member, ptr noundef %xy) #0 {
entry:
  %retval = alloca i32, align 4
  %zobj.addr = alloca ptr, align 8
  %member.addr = alloca ptr, align 8
  %xy.addr = alloca ptr, align 8
  %score = alloca double, align 8
  store ptr %zobj, ptr %zobj.addr, align 8
  store ptr %member, ptr %member.addr, align 8
  store ptr %xy, ptr %xy.addr, align 8
  store double 0.000000e+00, ptr %score, align 8
  %0 = load ptr, ptr %zobj.addr, align 8
  %1 = load ptr, ptr %member.addr, align 8
  %ptr = getelementptr inbounds %struct.redisObject, ptr %1, i32 0, i32 2
  %2 = load ptr, ptr %ptr, align 8
  %call = call i32 @zsetScore(ptr noundef %0, ptr noundef %2, ptr noundef %score)
  %cmp = icmp eq i32 %call, -1
  br i1 %cmp, label %if.then, label %if.end

if.then:                                          ; preds = %entry
  store i32 -1, ptr %retval, align 4
  br label %return

if.end:                                           ; preds = %entry
  %3 = load double, ptr %score, align 8
  %4 = load ptr, ptr %xy.addr, align 8
  %call1 = call i32 @decodeGeohash(double noundef %3, ptr noundef %4)
  %tobool = icmp ne i32 %call1, 0
  br i1 %tobool, label %if.end3, label %if.then2

if.then2:                                         ; preds = %if.end
  store i32 -1, ptr %retval, align 4
  br label %return

if.end3:                                          ; preds = %if.end
  store i32 0, ptr %retval, align 4
  br label %return

return:                                           ; preds = %if.end3, %if.then2, %if.then
  %5 = load i32, ptr %retval, align 4
  ret i32 %5
}