; Function Attrs: nounwind uwtable
define dso_local i32 @longLatFromMember(ptr noundef %zobj, ptr nocapture noundef readonly %member, ptr noundef %xy) local_unnamed_addr #0 {
entry:
  %score = alloca double, align 8
  store double 0.000000e+00, ptr %score, align 8
  %ptr = getelementptr inbounds i8, ptr %member, i64 8
  %0 = load ptr, ptr %ptr, align 8
  %call = call i32 @zsetScore(ptr noundef %zobj, ptr noundef %0, ptr noundef nonnull %score) #14
  %cmp = icmp eq i32 %call, -1
  br i1 %cmp, label %return, label %if.end

if.end:                                           ; preds = %entry
  %1 = load double, ptr %score, align 8
  %conv.i = fptoui double %1 to i64
  %call.i = call i32 @geohashDecodeToLongLatWGS84(i64 %conv.i, i8 26, ptr noundef %xy) #14
  %tobool.not = icmp eq i32 %call.i, 0
  %. = sext i1 %tobool.not to i32
  br label %return

return:                                           ; preds = %if.end, %entry
  %retval.0 = phi i32 [ -1, %entry ], [ %., %if.end ]
  ret i32 %retval.0
}